target datalayout = "e-m:e-p270:32:32-p271:32:32-p272:64:64-i64:64-i128:128-f80:128-n8:16:32:64-S128"
target triple = "x86_64-unknown-linux-gnu"

%class.aiQuaterniont = type { float, float, float, float }
%class.aiMatrix3x3t = type { float, float, float, float, float, float, float, float, float }

; Function Attrs: mustprogress nounwind uwtable
define linkonce_odr hidden void @_ZN12aiMatrix3x3tIfEC2Ev(ptr noundef nonnull align 4 dereferenceable(36) %this) unnamed_addr #0 comdat align 2 {
entry:
  %this.addr = alloca ptr, align 8
  store ptr %this, ptr %this.addr, align 8
  %this1 = load ptr, ptr %this.addr, align 8
  %a1 = getelementptr inbounds %class.aiMatrix3x3t, ptr %this1, i32 0, i32 0
  store float 1.000000e+00, ptr %a1, align 4
  %a2 = getelementptr inbounds %class.aiMatrix3x3t, ptr %this1, i32 0, i32 1
  store float 0.000000e+00, ptr %a2, align 4
  %a3 = getelementptr inbounds %class.aiMatrix3x3t, ptr %this1, i32 0, i32 2
  store float 0.000000e+00, ptr %a3, align 4
  %b1 = getelementptr inbounds %class.aiMatrix3x3t, ptr %this1, i32 0, i32 3
  store float 0.000000e+00, ptr %b1, align 4
  %b2 = getelementptr inbounds %class.aiMatrix3x3t, ptr %this1, i32 0, i32 4
  store float 1.000000e+00, ptr %b2, align 4
  %b3 = getelementptr inbounds %class.aiMatrix3x3t, ptr %this1, i32 0, i32 5
  store float 0.000000e+00, ptr %b3, align 4
  %c1 = getelementptr inbounds %class.aiMatrix3x3t, ptr %this1, i32 0, i32 6
  store float 0.000000e+00, ptr %c1, align 4
  %c2 = getelementptr inbounds %class.aiMatrix3x3t, ptr %this1, i32 0, i32 7
  store float 0.000000e+00, ptr %c2, align 4
  %c3 = getelementptr inbounds %class.aiMatrix3x3t, ptr %this1, i32 0, i32 8
  store float 1.000000e+00, ptr %c3, align 4
  ret void
}

; Function Attrs: mustprogress nounwind uwtable
define linkonce_odr hidden void @_ZNK13aiQuaterniontIfE9GetMatrixEv(ptr noalias sret(%class.aiMatrix3x3t) align 4 %agg.result, ptr noundef nonnull align 4 dereferenceable(16) %this) #0 comdat align 2 {
entry:
  %this.addr = alloca ptr, align 8
  store ptr %this, ptr %this.addr, align 8
  %this1 = load ptr, ptr %this.addr, align 8
  call void @_ZN12aiMatrix3x3tIfEC2Ev(ptr noundef nonnull align 4 dereferenceable(36) %agg.result) #3
  %y = getelementptr inbounds %class.aiQuaterniont, ptr %this1, i32 0, i32 2
  %0 = load float, ptr %y, align 4
  %y2 = getelementptr inbounds %class.aiQuaterniont, ptr %this1, i32 0, i32 2
  %1 = load float, ptr %y2, align 4
  %z = getelementptr inbounds %class.aiQuaterniont, ptr %this1, i32 0, i32 3
  %2 = load float, ptr %z, align 4
  %z3 = getelementptr inbounds %class.aiQuaterniont, ptr %this1, i32 0, i32 3
  %3 = load float, ptr %z3, align 4
  %mul4 = fmul float %2, %3
  %4 = call float @llvm.fmuladd.f32(float %0, float %1, float %mul4)
  %5 = call float @llvm.fmuladd.f32(float -2.000000e+00, float %4, float 1.000000e+00)
  %a1 = getelementptr inbounds %class.aiMatrix3x3t, ptr %agg.result, i32 0, i32 0
  store float %5, ptr %a1, align 4
  %x = getelementptr inbounds %class.aiQuaterniont, ptr %this1, i32 0, i32 1
  %6 = load float, ptr %x, align 4
  %y5 = getelementptr inbounds %class.aiQuaterniont, ptr %this1, i32 0, i32 2
  %7 = load float, ptr %y5, align 4
  %z6 = getelementptr inbounds %class.aiQuaterniont, ptr %this1, i32 0, i32 3
  %8 = load float, ptr %z6, align 4
  %w = getelementptr inbounds %class.aiQuaterniont, ptr %this1, i32 0, i32 0
  %9 = load float, ptr %w, align 4
  %mul7 = fmul float %8, %9
  %neg = fneg float %mul7
  %10 = call float @llvm.fmuladd.f32(float %6, float %7, float %neg)
  %mul = fmul float 2.000000e+00, %10
  %a2 = getelementptr inbounds %class.aiMatrix3x3t, ptr %agg.result, i32 0, i32 1
  store float %mul, ptr %a2, align 4
  %x8 = getelementptr inbounds %class.aiQuaterniont, ptr %this1, i32 0, i32 1
  %11 = load float, ptr %x8, align 4
  %z9 = getelementptr inbounds %class.aiQuaterniont, ptr %this1, i32 0, i32 3
  %12 = load float, ptr %z9, align 4
  %y11 = getelementptr inbounds %class.aiQuaterniont, ptr %this1, i32 0, i32 2
  %13 = load float, ptr %y11, align 4
  %w12 = getelementptr inbounds %class.aiQuaterniont, ptr %this1, i32 0, i32 0
  %14 = load float, ptr %w12, align 4
  %mul13 = fmul float %13, %14
  %15 = call float @llvm.fmuladd.f32(float %11, float %12, float %mul13)
  %mul14 = fmul float 2.000000e+00, %15
  %a3 = getelementptr inbounds %class.aiMatrix3x3t, ptr %agg.result, i32 0, i32 2
  store float %mul14, ptr %a3, align 4
  %x15 = getelementptr inbounds %class.aiQuaterniont, ptr %this1, i32 0, i32 1
  %16 = load float, ptr %x15, align 4
  %y16 = getelementptr inbounds %class.aiQuaterniont, ptr %this1, i32 0, i32 2
  %17 = load float, ptr %y16, align 4
  %z18 = getelementptr inbounds %class.aiQuaterniont, ptr %this1, i32 0, i32 3
  %18 = load float, ptr %z18, align 4
  %w19 = getelementptr inbounds %class.aiQuaterniont, ptr %this1, i32 0, i32 0
  %19 = load float, ptr %w19, align 4
  %mul20 = fmul float %18, %19
  %20 = call float @llvm.fmuladd.f32(float %16, float %17, float %mul20)
  %mul21 = fmul float 2.000000e+00, %20
  %b1 = getelementptr inbounds %class.aiMatrix3x3t, ptr %agg.result, i32 0, i32 3
  store float %mul21, ptr %b1, align 4
  %x22 = getelementptr inbounds %class.aiQuaterniont, ptr %this1, i32 0, i32 1
  %21 = load float, ptr %x22, align 4
  %x23 = getelementptr inbounds %class.aiQuaterniont, ptr %this1, i32 0, i32 1
  %22 = load float, ptr %x23, align 4
  %z25 = getelementptr inbounds %class.aiQuaterniont, ptr %this1, i32 0, i32 3
  %23 = load float, ptr %z25, align 4
  %z26 = getelementptr inbounds %class.aiQuaterniont, ptr %this1, i32 0, i32 3
  %24 = load float, ptr %z26, align 4
  %mul27 = fmul float %23, %24
  %25 = call float @llvm.fmuladd.f32(float %21, float %22, float %mul27)
  %26 = call float @llvm.fmuladd.f32(float -2.000000e+00, float %25, float 1.000000e+00)
  %b2 = getelementptr inbounds %class.aiMatrix3x3t, ptr %agg.result, i32 0, i32 4
  store float %26, ptr %b2, align 4
  %y29 = getelementptr inbounds %class.aiQuaterniont, ptr %this1, i32 0, i32 2
  %27 = load float, ptr %y29, align 4
  %z30 = getelementptr inbounds %class.aiQuaterniont, ptr %this1, i32 0, i32 3
  %28 = load float, ptr %z30, align 4
  %x32 = getelementptr inbounds %class.aiQuaterniont, ptr %this1, i32 0, i32 1
  %29 = load float, ptr %x32, align 4
  %w33 = getelementptr inbounds %class.aiQuaterniont, ptr %this1, i32 0, i32 0
  %30 = load float, ptr %w33, align 4
  %mul34 = fmul float %29, %30
  %neg35 = fneg float %mul34
  %31 = call float @llvm.fmuladd.f32(float %27, float %28, float %neg35)
  %mul36 = fmul float 2.000000e+00, %31
  %b3 = getelementptr inbounds %class.aiMatrix3x3t, ptr %agg.result, i32 0, i32 5
  store float %mul36, ptr %b3, align 4
  %x37 = getelementptr inbounds %class.aiQuaterniont, ptr %this1, i32 0, i32 1
  %32 = load float, ptr %x37, align 4
  %z38 = getelementptr inbounds %class.aiQuaterniont, ptr %this1, i32 0, i32 3
  %33 = load float, ptr %z38, align 4
  %y40 = getelementptr inbounds %class.aiQuaterniont, ptr %this1, i32 0, i32 2
  %34 = load float, ptr %y40, align 4
  %w41 = getelementptr inbounds %class.aiQuaterniont, ptr %this1, i32 0, i32 0
  %35 = load float, ptr %w41, align 4
  %mul42 = fmul float %34, %35
  %neg43 = fneg float %mul42
  %36 = call float @llvm.fmuladd.f32(float %32, float %33, float %neg43)
  %mul44 = fmul float 2.000000e+00, %36
  %c1 = getelementptr inbounds %class.aiMatrix3x3t, ptr %agg.result, i32 0, i32 6
  store float %mul44, ptr %c1, align 4
  %y45 = getelementptr inbounds %class.aiQuaterniont, ptr %this1, i32 0, i32 2
  %37 = load float, ptr %y45, align 4
  %z46 = getelementptr inbounds %class.aiQuaterniont, ptr %this1, i32 0, i32 3
  %38 = load float, ptr %z46, align 4
  %x48 = getelementptr inbounds %class.aiQuaterniont, ptr %this1, i32 0, i32 1
  %39 = load float, ptr %x48, align 4
  %w49 = getelementptr inbounds %class.aiQuaterniont, ptr %this1, i32 0, i32 0
  %40 = load float, ptr %w49, align 4
  %mul50 = fmul float %39, %40
  %41 = call float @llvm.fmuladd.f32(float %37, float %38, float %mul50)
  %mul51 = fmul float 2.000000e+00, %41
  %c2 = getelementptr inbounds %class.aiMatrix3x3t, ptr %agg.result, i32 0, i32 7
  store float %mul51, ptr %c2, align 4
  %x52 = getelementptr inbounds %class.aiQuaterniont, ptr %this1, i32 0, i32 1
  %42 = load float, ptr %x52, align 4
  %x53 = getelementptr inbounds %class.aiQuaterniont, ptr %this1, i32 0, i32 1
  %43 = load float, ptr %x53, align 4
  %y55 = getelementptr inbounds %class.aiQuaterniont, ptr %this1, i32 0, i32 2
  %44 = load float, ptr %y55, align 4
  %y56 = getelementptr inbounds %class.aiQuaterniont, ptr %this1, i32 0, i32 2
  %45 = load float, ptr %y56, align 4
  %mul57 = fmul float %44, %45
  %46 = call float @llvm.fmuladd.f32(float %42, float %43, float %mul57)
  %47 = call float @llvm.fmuladd.f32(float -2.000000e+00, float %46, float 1.000000e+00)
  %c3 = getelementptr inbounds %class.aiMatrix3x3t, ptr %agg.result, i32 0, i32 8
  store float %47, ptr %c3, align 4
  ret void
}

; Function Attrs: mustprogress uwtable
define void @aiMatrix3FromQuaternion(ptr noundef %mat, ptr noundef %q) #5 {
entry:
  %mat.addr = alloca ptr, align 8
  %q.addr = alloca ptr, align 8
  %ref.tmp = alloca %class.aiMatrix3x3t, align 4
  store ptr %mat, ptr %mat.addr, align 8
  store ptr %q, ptr %q.addr, align 8
  %0 = load ptr, ptr %q.addr, align 8
  call void @_ZNK13aiQuaterniontIfE9GetMatrixEv(ptr sret(%class.aiMatrix3x3t) align 4 %ref.tmp, ptr noundef nonnull align 4 dereferenceable(16) %0)
  %1 = load ptr, ptr %mat.addr, align 8
  call void @llvm.memcpy.p0.p0.i64(ptr align 4 %1, ptr align 4 %ref.tmp, i64 36, i1 false)
  ret void
}