; Function Attrs: mustprogress nofree norecurse nosync nounwind willreturn memory(argmem: readwrite) uwtable
define void @aiMatrix3FromQuaternion(ptr nocapture noundef writeonly %mat, ptr nocapture noundef readonly %q) local_unnamed_addr #11 {
entry:
  %y.i = getelementptr inbounds i8, ptr %q, i64 8
  %x.i = getelementptr inbounds i8, ptr %q, i64 4
  %0 = load float, ptr %x.i, align 4, !noalias !16
  %1 = load float, ptr %q, align 4, !noalias !16
  %mul50.i = fmul float %0, %1
  %ref.tmp.sroa.2.0.mat.sroa_idx = getelementptr inbounds i8, ptr %mat, i64 4
  %2 = load <2 x float>, ptr %y.i, align 4, !noalias !16
  %3 = extractelement <2 x float> %2, i64 1
  %mul4.i = fmul float %3, %3
  %4 = extractelement <2 x float> %2, i64 0
  %5 = tail call float @llvm.fmuladd.f32(float %4, float %4, float %mul4.i)
  %6 = tail call float @llvm.fmuladd.f32(float %5, float -2.000000e+00, float 1.000000e+00)
  %7 = fneg float %3
  %8 = insertelement <2 x float> poison, float %1, i64 0
  %9 = shufflevector <2 x float> %8, <2 x float> %2, <2 x i32> <i32 0, i32 2>
  %10 = insertelement <2 x float> poison, float %7, i64 0
  %11 = insertelement <2 x float> %10, float %1, i64 1
  %12 = fmul <2 x float> %9, %11
  %13 = insertelement <2 x float> poison, float %0, i64 0
  %14 = shufflevector <2 x float> %13, <2 x float> poison, <2 x i32> zeroinitializer
  %15 = tail call <2 x float> @llvm.fmuladd.v2f32(<2 x float> %14, <2 x float> %2, <2 x float> %12)
  %16 = fmul <2 x float> %15, <float 2.000000e+00, float 2.000000e+00>
  %mul20.i = fmul float %3, %1
  %17 = tail call float @llvm.fmuladd.f32(float %0, float %4, float %mul20.i)
  %mul21.i = fmul float %17, 2.000000e+00
  %18 = tail call float @llvm.fmuladd.f32(float %0, float %0, float %mul4.i)
  %19 = tail call float @llvm.fmuladd.f32(float %18, float -2.000000e+00, float 1.000000e+00)
  %20 = tail call float @llvm.fmuladd.f32(float %4, float %3, float %mul50.i)
  %mul51.i = fmul float %20, 2.000000e+00
  %21 = fmul <2 x float> %2, %2
  %mul57.i = extractelement <2 x float> %21, i64 0
  %22 = tail call float @llvm.fmuladd.f32(float %0, float %0, float %mul57.i)
  %23 = tail call float @llvm.fmuladd.f32(float %22, float -2.000000e+00, float 1.000000e+00)
  store float %6, ptr %mat, align 4
  store <2 x float> %16, ptr %ref.tmp.sroa.2.0.mat.sroa_idx, align 4
  %ref.tmp.sroa.4.0.mat.sroa_idx = getelementptr inbounds i8, ptr %mat, i64 12
  store float %mul21.i, ptr %ref.tmp.sroa.4.0.mat.sroa_idx, align 4
  %ref.tmp.sroa.5.0.mat.sroa_idx = getelementptr inbounds i8, ptr %mat, i64 16
  store float %19, ptr %ref.tmp.sroa.5.0.mat.sroa_idx, align 4
  %ref.tmp.sroa.6.0.mat.sroa_idx = getelementptr inbounds i8, ptr %mat, i64 20
  %24 = shufflevector <2 x float> %2, <2 x float> poison, <2 x i32> <i32 poison, i32 0>
  %25 = insertelement <2 x float> %24, float %0, i64 0
  %26 = fneg <2 x float> %25
  %27 = shufflevector <2 x float> %8, <2 x float> poison, <2 x i32> zeroinitializer
  %28 = fmul <2 x float> %27, %26
  %29 = insertelement <2 x float> %2, float %0, i64 1
  %30 = shufflevector <2 x float> %2, <2 x float> poison, <2 x i32> <i32 1, i32 1>
  %31 = tail call <2 x float> @llvm.fmuladd.v2f32(<2 x float> %29, <2 x float> %30, <2 x float> %28)
  %32 = fmul <2 x float> %31, <float 2.000000e+00, float 2.000000e+00>
  store <2 x float> %32, ptr %ref.tmp.sroa.6.0.mat.sroa_idx, align 4
  %ref.tmp.sroa.8.0.mat.sroa_idx = getelementptr inbounds i8, ptr %mat, i64 28
  store float %mul51.i, ptr %ref.tmp.sroa.8.0.mat.sroa_idx, align 4
  %ref.tmp.sroa.9.0.mat.sroa_idx = getelementptr inbounds i8, ptr %mat, i64 32
  store float %23, ptr %ref.tmp.sroa.9.0.mat.sroa_idx, align 4
  ret void
}